; Function Attrs: nounwind uwtable
define void @Aig_ManDupPartAll_rec(ptr noundef %0, ptr noundef %1, ptr noundef %2) local_unnamed_addr #4 {
  %4 = getelementptr i8, ptr %1, i64 312
  %.val31 = load i32, ptr %4, align 8, !tbaa !100
  %5 = getelementptr i8, ptr %2, i64 32
  %.val32 = load i32, ptr %5, align 8, !tbaa !101
  %.not = icmp eq i32 %.val32, %.val31
  br i1 %.not, label %63, label %6

6:                                                ; preds = %3
  store i32 %.val31, ptr %5, align 8, !tbaa !101
  %7 = getelementptr i8, ptr %2, i64 24
  %.val30 = load i64, ptr %7, align 8
  %8 = and i64 %.val30, 7
  switch i64 %8, label %28 [
    i64 2, label %9
    i64 3, label %11
  ]

9:                                                ; preds = %6
  %10 = tail call ptr @Aig_ObjCreateCi(ptr noundef %0) #24
  br label %60

11:                                               ; preds = %6
  %12 = getelementptr i8, ptr %2, i64 8
  %.val27 = load ptr, ptr %12, align 8, !tbaa !55
  %13 = ptrtoint ptr %.val27 to i64
  %14 = and i64 %13, -2
  %15 = inttoptr i64 %14 to ptr
  tail call void @Aig_ManDupPartAll_rec(ptr noundef %0, ptr noundef nonnull %1, ptr noundef %15)
  %.val35 = load ptr, ptr %12, align 8, !tbaa !55
  %16 = ptrtoint ptr %.val35 to i64
  %17 = and i64 %16, -2
  %.not.i = icmp eq i64 %17, 0
  br i1 %.not.i, label %Aig_ObjChild0Copy.exit, label %18

18:                                               ; preds = %11
  %19 = inttoptr i64 %17 to ptr
  %20 = getelementptr inbounds nuw i8, ptr %19, i64 40
  %21 = load ptr, ptr %20, align 8, !tbaa !51
  %22 = and i64 %16, 1
  %23 = ptrtoint ptr %21 to i64
  %24 = xor i64 %22, %23
  %25 = inttoptr i64 %24 to ptr
  br label %Aig_ObjChild0Copy.exit

Aig_ObjChild0Copy.exit:                           ; preds = %11, %18
  %26 = phi ptr [ %25, %18 ], [ null, %11 ]
  %27 = tail call ptr @Aig_ObjCreateCo(ptr noundef %0, ptr noundef %26) #24
  br label %60

28:                                               ; preds = %6
  %29 = getelementptr i8, ptr %2, i64 8
  %.val = load ptr, ptr %29, align 8, !tbaa !55
  %30 = ptrtoint ptr %.val to i64
  %31 = and i64 %30, -2
  %32 = inttoptr i64 %31 to ptr
  tail call void @Aig_ManDupPartAll_rec(ptr noundef %0, ptr noundef nonnull %1, ptr noundef %32)
  %33 = getelementptr i8, ptr %2, i64 16
  %.val28 = load ptr, ptr %33, align 8, !tbaa !56
  %34 = ptrtoint ptr %.val28 to i64
  %35 = and i64 %34, -2
  %36 = inttoptr i64 %35 to ptr
  tail call void @Aig_ManDupPartAll_rec(ptr noundef %0, ptr noundef nonnull %1, ptr noundef %36)
  %.val34 = load ptr, ptr %29, align 8, !tbaa !55
  %37 = ptrtoint ptr %.val34 to i64
  %38 = and i64 %37, -2
  %.not.i37 = icmp eq i64 %38, 0
  br i1 %.not.i37, label %Aig_ObjChild0Copy.exit38, label %39

39:                                               ; preds = %28
  %40 = inttoptr i64 %38 to ptr
  %41 = getelementptr inbounds nuw i8, ptr %40, i64 40
  %42 = load ptr, ptr %41, align 8, !tbaa !51
  %43 = and i64 %37, 1
  %44 = ptrtoint ptr %42 to i64
  %45 = xor i64 %43, %44
  %46 = inttoptr i64 %45 to ptr
  br label %Aig_ObjChild0Copy.exit38

Aig_ObjChild0Copy.exit38:                         ; preds = %28, %39
  %47 = phi ptr [ %46, %39 ], [ null, %28 ]
  %.val36 = load ptr, ptr %33, align 8, !tbaa !56
  %48 = ptrtoint ptr %.val36 to i64
  %49 = and i64 %48, -2
  %.not.i39 = icmp eq i64 %49, 0
  br i1 %.not.i39, label %Aig_ObjChild1Copy.exit, label %50

50:                                               ; preds = %Aig_ObjChild0Copy.exit38
  %51 = inttoptr i64 %49 to ptr
  %52 = getelementptr inbounds nuw i8, ptr %51, i64 40
  %53 = load ptr, ptr %52, align 8, !tbaa !51
  %54 = and i64 %48, 1
  %55 = ptrtoint ptr %53 to i64
  %56 = xor i64 %54, %55
  %57 = inttoptr i64 %56 to ptr
  br label %Aig_ObjChild1Copy.exit

Aig_ObjChild1Copy.exit:                           ; preds = %Aig_ObjChild0Copy.exit38, %50
  %58 = phi ptr [ %57, %50 ], [ null, %Aig_ObjChild0Copy.exit38 ]
  %59 = tail call ptr @Aig_And(ptr noundef %0, ptr noundef %47, ptr noundef %58) #24
  br label %60

60:                                               ; preds = %Aig_ObjChild0Copy.exit, %Aig_ObjChild1Copy.exit, %9
  %.0 = phi ptr [ %10, %9 ], [ %27, %Aig_ObjChild0Copy.exit ], [ %59, %Aig_ObjChild1Copy.exit ]
  %61 = getelementptr inbounds nuw i8, ptr %2, i64 40
  store ptr %.0, ptr %61, align 8, !tbaa !51
  %62 = getelementptr inbounds nuw i8, ptr %.0, i64 40
  store ptr %2, ptr %62, align 8, !tbaa !51
  br label %63

63:                                               ; preds = %3, %60
  ret void
}